; Function Attrs: nounwind uwtable
define internal void @recff_buffer_method_encode(ptr noundef %0, ptr noundef readonly captures(none) %1) #0 {
  %.val = load ptr, ptr %1, align 8, !tbaa !36
  %3 = getelementptr inbounds nuw i8, ptr %0, i64 160
  %4 = load ptr, ptr %3, align 8, !tbaa !37
  %5 = load i32, ptr %4, align 4, !tbaa !39
  %6 = load i64, ptr %.val, align 8, !tbaa !4
  %.mask.i = and i64 %6, -140737488355328
  %7 = icmp eq i64 %.mask.i, -1829587348619264
  br i1 %7, label %8, label %14

8:                                                ; preds = %2
  %9 = and i64 %6, 140737488355327
  %10 = inttoptr i64 %9 to ptr
  %11 = getelementptr inbounds nuw i8, ptr %10, i64 10
  %12 = load i8, ptr %11, align 2, !tbaa !4
  %13 = icmp eq i8 %12, 3
  br i1 %13, label %recff_sbufx_check.exit, label %14

14:                                               ; preds = %8, %2
  tail call void @lj_trace_err(ptr noundef nonnull %0, i32 noundef 11) #10
  unreachable

recff_sbufx_check.exit:                           ; preds = %8
  %15 = trunc i32 %5 to i16
  %16 = getelementptr inbounds nuw i8, ptr %0, i64 184
  %17 = getelementptr inbounds nuw i8, ptr %0, i64 188
  store i16 17680, ptr %17, align 4, !tbaa !4
  store i16 %15, ptr %16, align 8, !tbaa !4
  %18 = getelementptr inbounds nuw i8, ptr %0, i64 186
  store i16 12, ptr %18, align 2, !tbaa !4
  %19 = tail call i32 @lj_opt_fold(ptr noundef nonnull %0) #9
  %20 = trunc i32 %19 to i16
  %21 = tail call i32 @lj_ir_kint(ptr noundef nonnull %0, i32 noundef 3) #9
  %22 = trunc i32 %21 to i16
  store i16 2195, ptr %17, align 4, !tbaa !4
  store i16 %20, ptr %16, align 8, !tbaa !4
  store i16 %22, ptr %18, align 2, !tbaa !4
  %23 = tail call i32 @lj_opt_fold(ptr noundef nonnull %0) #9
  %24 = getelementptr inbounds nuw i8, ptr %0, i64 181
  store i8 1, ptr %24, align 1, !tbaa !54
  %25 = tail call i32 @lj_ir_kint64(ptr noundef nonnull %0, i64 noundef 48) #9
  %26 = trunc i32 %25 to i16
  store i16 10505, ptr %17, align 4, !tbaa !4
  store i16 %15, ptr %16, align 8, !tbaa !4
  store i16 %26, ptr %18, align 2, !tbaa !4
  %27 = tail call i32 @lj_opt_fold(ptr noundef nonnull %0) #9
  %28 = trunc i32 %27 to i16
  store i16 21769, ptr %17, align 4, !tbaa !4
  store i16 %28, ptr %16, align 8, !tbaa !4
  store i16 2, ptr %18, align 2, !tbaa !4
  %29 = tail call i32 @lj_opt_fold(ptr noundef nonnull %0) #9
  %30 = load ptr, ptr %3, align 8, !tbaa !37
  %31 = getelementptr inbounds nuw i8, ptr %30, i64 4
  %32 = load i32, ptr %31, align 4, !tbaa !39
  %33 = lshr i32 %32, 24
  %34 = and i32 %33, 31
  %35 = add nsw i32 %34, -15
  %36 = icmp ult i32 %35, 5
  br i1 %36, label %37, label %recff_tmpref.exit

37:                                               ; preds = %recff_sbufx_check.exit
  %38 = trunc i32 %32 to i16
  store i16 23310, ptr %17, align 4, !tbaa !4
  store i16 %38, ptr %16, align 8, !tbaa !4
  store i16 467, ptr %18, align 2, !tbaa !4
  %39 = tail call i32 @lj_opt_fold(ptr noundef nonnull %0) #9
  br label %recff_tmpref.exit

recff_tmpref.exit:                                ; preds = %recff_sbufx_check.exit, %37
  %.0.i = phi i32 [ %39, %37 ], [ %32, %recff_sbufx_check.exit ]
  %40 = trunc i32 %.0.i to i16
  store i16 16137, ptr %17, align 4, !tbaa !4
  store i16 %40, ptr %16, align 8, !tbaa !4
  store i16 1, ptr %18, align 2, !tbaa !4
  %41 = tail call i32 @lj_opt_fold(ptr noundef nonnull %0) #9
  %42 = tail call i32 (ptr, i32, ...) @lj_ir_call(ptr noundef nonnull %0, i32 noundef 26, i32 noundef %29, i32 noundef %41) #9
  ret void
}